target datalayout = "e-m:e-p270:32:32-p271:32:32-p272:64:64-i64:64-i128:128-f80:128-n8:16:32:64-S128"
target triple = "x86_64-unknown-linux-gnu"

%struct.client = type { i64, i64, ptr, i32, ptr, ptr, ptr, ptr, ptr, i64, i64, i32, ptr, i32, i32, ptr, i64, ptr, ptr, ptr, ptr, i32, i32, i64, ptr, i64, ptr, i64, i64, i64, i32, ptr, i64, i64, i32, i32, i32, i32, i64, i64, ptr, i64, i64, i64, i64, i64, i64, i64, i64, [41 x i8], i32, ptr, i32, i32, %struct.multiState, %struct.blockingState, i64, ptr, ptr, ptr, ptr, ptr, ptr, ptr, ptr, ptr, ptr, ptr, ptr, ptr, ptr, i64, ptr, i64, i32, ptr, ptr, ptr, i64, %struct.listNode, i64, i64, i32, i64, ptr }
%struct.multiState = type { ptr, i32, i32, i32, i64, i32 }
%struct.blockingState = type { i32, i64, i32, ptr, i32, i32, i64, ptr, ptr }
%struct.listNode = type { ptr, ptr, ptr }

@.str.3 = private unnamed_addr constant [14 x i8] c"replication.c\00", align 1
@.str.84 = private unnamed_addr constant [38 x i8] c"!(slave->flags & CLIENT_REPL_RDBONLY)\00", align 1

; Function Attrs: nounwind uwtable
define dso_local void @replicaStartCommandStream(ptr noundef %slave) #0 {
entry:
  %slave.addr = alloca ptr, align 8
  store ptr %slave, ptr %slave.addr, align 8
  %0 = load ptr, ptr %slave.addr, align 8
  %flags = getelementptr inbounds %struct.client, ptr %0, i32 0, i32 1
  %1 = load i64, ptr %flags, align 8
  %and = and i64 %1, 4398046511104
  %tobool = icmp ne i64 %and, 0
  %lnot = xor i1 %tobool, true
  %lnot1 = xor i1 %lnot, true
  %lnot2 = xor i1 %lnot1, true
  %lnot.ext = zext i1 %lnot2 to i32
  %conv = sext i32 %lnot.ext to i64
  %tobool3 = icmp ne i64 %conv, 0
  br i1 %tobool3, label %cond.true, label %cond.false

cond.true:                                        ; preds = %entry
  br label %cond.end

cond.false:                                       ; preds = %entry
  call void @_serverAssert(ptr noundef @.str.84, ptr noundef @.str.3, i32 noundef 1331)
  call void @abort() #13
  unreachable

2:                                                ; No predecessors!
  br label %cond.end

cond.end:                                         ; preds = %2, %cond.true
  %3 = load ptr, ptr %slave.addr, align 8
  %repl_start_cmd_stream_on_ack = getelementptr inbounds %struct.client, ptr %3, i32 0, i32 36
  store i32 0, ptr %repl_start_cmd_stream_on_ack, align 8
  %4 = load ptr, ptr %slave.addr, align 8
  call void @putClientInPendingWriteQueue(ptr noundef %4)
  ret void
}