; Function Attrs: nounwind uwtable
define dso_local void @replicaStartCommandStream(ptr noundef %slave) local_unnamed_addr #0 {
entry:
  %flags = getelementptr inbounds i8, ptr %slave, i64 8
  %0 = load i64, ptr %flags, align 8
  %and = and i64 %0, 4398046511104
  %tobool.not = icmp eq i64 %and, 0
  br i1 %tobool.not, label %cond.end, label %cond.false

cond.false:                                       ; preds = %entry
  tail call void @_serverAssert(ptr noundef nonnull @.str.84, ptr noundef nonnull @.str.3, i32 noundef 1331) #21
  tail call void @abort() #24
  unreachable

cond.end:                                         ; preds = %entry
  %repl_start_cmd_stream_on_ack = getelementptr inbounds i8, ptr %slave, i64 264
  store i32 0, ptr %repl_start_cmd_stream_on_ack, align 8
  tail call void @putClientInPendingWriteQueue(ptr noundef nonnull %slave) #21
  ret void
}